; Function Attrs: mustprogress uwtable
define hidden noundef ptr @_ZNK7datalog14sieve_relation5cloneEv(ptr noundef nonnull readonly align 8 captures(none) dereferenceable(72) %0) unnamed_addr #3 align 2 {
  %2 = getelementptr inbounds nuw i8, ptr %0, i64 64
  %3 = load ptr, ptr %2, align 8, !tbaa !26
  %4 = load ptr, ptr %3, align 8, !tbaa !3
  %5 = getelementptr inbounds nuw i8, ptr %4, i64 72
  %6 = load ptr, ptr %5, align 8
  %7 = tail call noundef ptr %6(ptr noundef nonnull align 8 dereferenceable(28) %3)
  %8 = getelementptr inbounds nuw i8, ptr %0, i64 8
  %9 = load ptr, ptr %8, align 8, !tbaa !55
  %10 = getelementptr inbounds nuw i8, ptr %0, i64 16
  %11 = getelementptr inbounds nuw i8, ptr %0, i64 32
  %12 = load ptr, ptr %11, align 8, !tbaa !29
  %13 = tail call noalias noundef ptr @_ZN6memory8allocateEm(i64 noundef 72)
  tail call void @_ZN7datalog14sieve_relationC2ERNS_21sieve_relation_pluginERKNS_18relation_signatureEPKbPNS_13relation_baseE(ptr noundef nonnull align 8 dereferenceable(72) %13, ptr noundef nonnull align 8 dereferenceable(104) %9, ptr noundef nonnull readonly align 8 dereferenceable(8) %10, ptr noundef %12, ptr noundef %7)
  ret ptr %13
}